; Function Attrs: mustprogress nofree norecurse nosync nounwind willreturn memory(readwrite, inaccessiblemem: none) uwtable
define dso_local void @_ZN4llvm5APInt7flipBitEj(ptr noundef nonnull align 8 captures(none) dereferenceable(12) %0, i32 noundef %1) local_unnamed_addr #8 align 2 {
  %3 = and i32 %1, 63
  %4 = zext nneg i32 %3 to i64
  %5 = shl nuw i64 1, %4
  %6 = getelementptr inbounds nuw i8, ptr %0, i64 8
  %7 = load i32, ptr %6, align 8
  %8 = icmp ult i32 %7, 65
  %9 = load ptr, ptr %0, align 8
  %10 = lshr i32 %1, 6
  %11 = zext nneg i32 %10 to i64
  %12 = getelementptr inbounds nuw i64, ptr %9, i64 %11
  %.in.i.i = select i1 %8, ptr %0, ptr %12
  %13 = load i64, ptr %.in.i.i, align 8
  %14 = and i64 %13, %5
  %.not = icmp eq i64 %14, 0
  %15 = ptrtoint ptr %9 to i64
  br i1 %.not, label %16, label %22

16:                                               ; preds = %2
  br i1 %8, label %17, label %19

17:                                               ; preds = %16
  %18 = or i64 %5, %15
  store i64 %18, ptr %0, align 8
  br label %_ZN4llvm5APInt9setBitValEjb.exit

19:                                               ; preds = %16
  %20 = load i64, ptr %12, align 8
  %21 = or i64 %20, %5
  store i64 %21, ptr %12, align 8
  br label %_ZN4llvm5APInt9setBitValEjb.exit

22:                                               ; preds = %2
  %23 = xor i64 %5, -1
  br i1 %8, label %24, label %26

24:                                               ; preds = %22
  %25 = and i64 %15, %23
  store i64 %25, ptr %0, align 8
  br label %_ZN4llvm5APInt9setBitValEjb.exit

26:                                               ; preds = %22
  %27 = load i64, ptr %12, align 8
  %28 = and i64 %27, %23
  store i64 %28, ptr %12, align 8
  br label %_ZN4llvm5APInt9setBitValEjb.exit

_ZN4llvm5APInt9setBitValEjb.exit:                 ; preds = %17, %19, %24, %26
  ret void
}